; Function Attrs: mustprogress nounwind uwtable
define internal void @_ZN12_GLOBAL__N_117BinaryFileHandlerD2Ev(ptr noundef nonnull align 8 dereferenceable(88) %0) unnamed_addr #3 align 2 {
  %2 = getelementptr inbounds nuw i8, ptr %0, i64 48
  tail call void @_ZNSt7__cxx1112basic_stringIcSt11char_traitsIcESaIcEED1Ev(ptr noundef nonnull align 8 dereferenceable(32) %2) #24
  %3 = getelementptr inbounds nuw i8, ptr %0, i64 8
  %4 = getelementptr inbounds i8, ptr %0, i64 20
  %5 = load i32, ptr %4, align 4
  %6 = icmp eq i32 %5, 0
  br i1 %6, label %_ZN4llvm9StringMapIN12_GLOBAL__N_117BinaryFileHandler16BinaryBundleInfoENS_15MallocAllocatorEED2Ev.exit, label %7

7:                                                ; preds = %1
  %8 = getelementptr inbounds i8, ptr %0, i64 16
  %9 = load i32, ptr %8, align 8
  %.not10.i = icmp eq i32 %9, 0
  br i1 %.not10.i, label %_ZN4llvm9StringMapIN12_GLOBAL__N_117BinaryFileHandler16BinaryBundleInfoENS_15MallocAllocatorEED2Ev.exit, label %.lr.ph.preheader.i

.lr.ph.preheader.i:                               ; preds = %7
  %10 = zext i32 %9 to i64
  br label %.lr.ph.i

.lr.ph.i:                                         ; preds = %17, %.lr.ph.preheader.i
  %indvars.iv.i = phi i64 [ 0, %.lr.ph.preheader.i ], [ %indvars.iv.next.i, %17 ]
  %11 = load ptr, ptr %3, align 8
  %12 = getelementptr inbounds ptr, ptr %11, i64 %indvars.iv.i
  %13 = load ptr, ptr %12, align 8
  %magicptr.i = ptrtoint ptr %13 to i64
  switch i64 %magicptr.i, label %14 [
    i64 0, label %17
    i64 -8, label %17
  ]

14:                                               ; preds = %.lr.ph.i
  %15 = load i64, ptr %13, align 8
  %16 = add i64 %15, 41
  tail call void @_ZN4llvm17deallocate_bufferEPvmm(ptr noundef nonnull %13, i64 noundef %16, i64 noundef 8) #24
  br label %17

17:                                               ; preds = %14, %.lr.ph.i, %.lr.ph.i
  %indvars.iv.next.i = add nuw nsw i64 %indvars.iv.i, 1
  %.not.i = icmp eq i64 %indvars.iv.next.i, %10
  br i1 %.not.i, label %_ZN4llvm9StringMapIN12_GLOBAL__N_117BinaryFileHandler16BinaryBundleInfoENS_15MallocAllocatorEED2Ev.exit, label %.lr.ph.i, !llvm.loop !393

_ZN4llvm9StringMapIN12_GLOBAL__N_117BinaryFileHandler16BinaryBundleInfoENS_15MallocAllocatorEED2Ev.exit: ; preds = %17, %1, %7
  %18 = load ptr, ptr %3, align 8
  tail call void @free(ptr noundef %18) #24
  ret void
}